target datalayout = "e-m:e-p270:32:32-p271:32:32-p272:64:64-i64:64-i128:128-f80:128-n8:16:32:64-S128"
target triple = "x86_64-pc-linux-gnu"

%"class.duckdb_re2::Prog::Inst" = type { i32, %union.anon }
%union.anon = type { i32 }
%struct.anon = type { i8, i8, i16 }

; Function Attrs: mustprogress nounwind uwtable
define linkonce_odr hidden noundef i32 @_ZN10duckdb_re24Prog4Inst4lastEv(ptr noundef nonnull align 4 dereferenceable(8) %0) #1 comdat align 2 {
  %2 = alloca ptr, align 8
  store ptr %0, ptr %2, align 8, !tbaa !3
  %3 = load ptr, ptr %2, align 8
  %4 = getelementptr inbounds nuw %"class.duckdb_re2::Prog::Inst", ptr %3, i32 0, i32 0
  %5 = load i32, ptr %4, align 4, !tbaa !13
  %6 = lshr i32 %5, 3
  %7 = and i32 %6, 1
  ret i32 %7
}

; Function Attrs: mustprogress uwtable
define linkonce_odr hidden void @_ZN10duckdb_re24Prog4Inst14set_out_opcodeEiNS_6InstOpE(ptr noundef nonnull align 4 dereferenceable(8) %0, i32 noundef %1, i32 noundef %2) #0 comdat align 2 {
  %4 = alloca ptr, align 8
  %5 = alloca i32, align 4
  %6 = alloca i32, align 4
  store ptr %0, ptr %4, align 8, !tbaa !3
  store i32 %1, ptr %5, align 4, !tbaa !8
  store i32 %2, ptr %6, align 4, !tbaa !11
  %7 = load ptr, ptr %4, align 8
  %8 = load i32, ptr %5, align 4, !tbaa !8
  %9 = shl i32 %8, 4
  %10 = call noundef i32 @_ZN10duckdb_re24Prog4Inst4lastEv(ptr noundef nonnull align 4 dereferenceable(8) %7)
  %11 = shl i32 %10, 3
  %12 = or i32 %9, %11
  %13 = load i32, ptr %6, align 4, !tbaa !11
  %14 = or i32 %12, %13
  %15 = getelementptr inbounds nuw %"class.duckdb_re2::Prog::Inst", ptr %7, i32 0, i32 0
  store i32 %14, ptr %15, align 4, !tbaa !13
  ret void
}

; Function Attrs: mustprogress uwtable
define hidden void @_ZN10duckdb_re24Prog4Inst13InitByteRangeEiiij(ptr noundef nonnull align 4 dereferenceable(8) %0, i32 noundef %1, i32 noundef %2, i32 noundef %3, i32 noundef %4) #0 align 2 {
  %6 = alloca ptr, align 8
  %7 = alloca i32, align 4
  %8 = alloca i32, align 4
  %9 = alloca i32, align 4
  %10 = alloca i32, align 4
  store ptr %0, ptr %6, align 8, !tbaa !3
  store i32 %1, ptr %7, align 4, !tbaa !8
  store i32 %2, ptr %8, align 4, !tbaa !8
  store i32 %3, ptr %9, align 4, !tbaa !8
  store i32 %4, ptr %10, align 4, !tbaa !8
  %11 = load ptr, ptr %6, align 8
  %12 = load i32, ptr %10, align 4, !tbaa !8
  call void @_ZN10duckdb_re24Prog4Inst14set_out_opcodeEiNS_6InstOpE(ptr noundef nonnull align 4 dereferenceable(8) %11, i32 noundef %12, i32 noundef 2)
  %13 = load i32, ptr %7, align 4, !tbaa !8
  %14 = and i32 %13, 255
  %15 = trunc i32 %14 to i8
  %16 = getelementptr inbounds nuw %"class.duckdb_re2::Prog::Inst", ptr %11, i32 0, i32 1
  %17 = getelementptr inbounds nuw %struct.anon, ptr %16, i32 0, i32 0
  store i8 %15, ptr %17, align 4, !tbaa !10
  %18 = load i32, ptr %8, align 4, !tbaa !8
  %19 = and i32 %18, 255
  %20 = trunc i32 %19 to i8
  %21 = getelementptr inbounds nuw %"class.duckdb_re2::Prog::Inst", ptr %11, i32 0, i32 1
  %22 = getelementptr inbounds nuw %struct.anon, ptr %21, i32 0, i32 1
  store i8 %20, ptr %22, align 1, !tbaa !10
  %23 = load i32, ptr %9, align 4, !tbaa !8
  %24 = and i32 %23, 1
  %25 = trunc i32 %24 to i16
  %26 = getelementptr inbounds nuw %"class.duckdb_re2::Prog::Inst", ptr %11, i32 0, i32 1
  %27 = getelementptr inbounds nuw %struct.anon, ptr %26, i32 0, i32 2
  store i16 %25, ptr %27, align 2, !tbaa !10
  ret void
}