; Function Attrs: mustprogress nofree norecurse nosync nounwind willreturn memory(argmem: readwrite) uwtable
define hidden void @_ZN10duckdb_re24Prog4Inst13InitByteRangeEiiij(ptr noundef nonnull align 4 captures(none) dereferenceable(8) initializes((4, 8)) %0, i32 noundef %1, i32 noundef %2, i32 noundef %3, i32 noundef %4) local_unnamed_addr #0 align 2 {
  %6 = shl i32 %4, 4
  %7 = load i32, ptr %0, align 4, !tbaa !3
  %8 = and i32 %7, 8
  %9 = or disjoint i32 %8, %6
  %10 = or disjoint i32 %9, 2
  store i32 %10, ptr %0, align 4, !tbaa !3
  %11 = trunc i32 %1 to i8
  %12 = getelementptr inbounds nuw i8, ptr %0, i64 4
  store i8 %11, ptr %12, align 4, !tbaa !8
  %13 = trunc i32 %2 to i8
  %14 = getelementptr inbounds nuw i8, ptr %0, i64 5
  store i8 %13, ptr %14, align 1, !tbaa !8
  %15 = trunc i32 %3 to i16
  %16 = and i16 %15, 1
  %17 = getelementptr inbounds nuw i8, ptr %0, i64 6
  store i16 %16, ptr %17, align 2, !tbaa !8
  ret void
}